target datalayout = "e-m:e-p270:32:32-p271:32:32-p272:64:64-i64:64-i128:128-f80:128-n8:16:32:64-S128"
target triple = "x86_64-pc-linux-gnu"

%struct.reftable_block_source = type { ptr, ptr }
%struct.reftable_block_source_vtable = type { ptr, ptr, ptr, ptr }
%struct.reftable_block = type { ptr, i64, %struct.reftable_block_source }
%struct.reftable_reader = type { ptr, %struct.reftable_block_source, i64, i32, i32, i64, i64, i32, i32, %struct.reftable_reader_offsets, %struct.reftable_reader_offsets, %struct.reftable_reader_offsets, i64 }
%struct.reftable_reader_offsets = type { i32, i64, i64 }

@.str = private unnamed_addr constant [5 x i8] c"REFT\00", align 1

; Function Attrs: nounwind uwtable
define dso_local void @block_source_close(ptr noundef %0) #0 {
  %2 = alloca ptr, align 8
  store ptr %0, ptr %2, align 8, !tbaa !4
  %3 = load ptr, ptr %2, align 8, !tbaa !4
  %4 = getelementptr inbounds nuw %struct.reftable_block_source, ptr %3, i32 0, i32 0
  %5 = load ptr, ptr %4, align 8, !tbaa !9
  %6 = icmp ne ptr %5, null
  br i1 %6, label %8, label %7

7:                                                ; preds = %1
  br label %19

8:                                                ; preds = %1
  %9 = load ptr, ptr %2, align 8, !tbaa !4
  %10 = getelementptr inbounds nuw %struct.reftable_block_source, ptr %9, i32 0, i32 0
  %11 = load ptr, ptr %10, align 8, !tbaa !9
  %12 = getelementptr inbounds nuw %struct.reftable_block_source_vtable, ptr %11, i32 0, i32 3
  %13 = load ptr, ptr %12, align 8, !tbaa !25
  %14 = load ptr, ptr %2, align 8, !tbaa !4
  %15 = getelementptr inbounds nuw %struct.reftable_block_source, ptr %14, i32 0, i32 1
  %16 = load ptr, ptr %15, align 8, !tbaa !14
  call void %13(ptr noundef %16)
  %17 = load ptr, ptr %2, align 8, !tbaa !4
  %18 = getelementptr inbounds nuw %struct.reftable_block_source, ptr %17, i32 0, i32 0
  store ptr null, ptr %18, align 8, !tbaa !9
  br label %19

19:                                               ; preds = %8, %7
  ret void
}

; Function Attrs: nounwind uwtable
define dso_local i64 @block_source_read_block(ptr noundef %0, ptr noundef %1, i64 noundef %2, i32 noundef %3) #0 {
  %5 = alloca ptr, align 8
  %6 = alloca ptr, align 8
  %7 = alloca i64, align 8
  %8 = alloca i32, align 4
  %9 = alloca i64, align 8
  store ptr %0, ptr %5, align 8, !tbaa !4
  store ptr %1, ptr %6, align 8, !tbaa !15
  store i64 %2, ptr %7, align 8, !tbaa !17
  store i32 %3, ptr %8, align 4, !tbaa !19
  call void @llvm.lifetime.start.p0(i64 8, ptr %9) #9
  %10 = load ptr, ptr %5, align 8, !tbaa !4
  %11 = getelementptr inbounds nuw %struct.reftable_block_source, ptr %10, i32 0, i32 0
  %12 = load ptr, ptr %11, align 8, !tbaa !9
  %13 = getelementptr inbounds nuw %struct.reftable_block_source_vtable, ptr %12, i32 0, i32 1
  %14 = load ptr, ptr %13, align 8, !tbaa !21
  %15 = load ptr, ptr %5, align 8, !tbaa !4
  %16 = getelementptr inbounds nuw %struct.reftable_block_source, ptr %15, i32 0, i32 1
  %17 = load ptr, ptr %16, align 8, !tbaa !14
  %18 = load ptr, ptr %6, align 8, !tbaa !15
  %19 = load i64, ptr %7, align 8, !tbaa !17
  %20 = load i32, ptr %8, align 4, !tbaa !19
  %21 = call i64 %14(ptr noundef %17, ptr noundef %18, i64 noundef %19, i32 noundef %20)
  store i64 %21, ptr %9, align 8, !tbaa !17
  %22 = load ptr, ptr %6, align 8, !tbaa !15
  %23 = getelementptr inbounds nuw %struct.reftable_block, ptr %22, i32 0, i32 2
  %24 = load ptr, ptr %5, align 8, !tbaa !4
  call void @llvm.memcpy.p0.p0.i64(ptr align 8 %23, ptr align 8 %24, i64 16, i1 false), !tbaa.struct !22
  %25 = load i64, ptr %9, align 8, !tbaa !17
  call void @llvm.lifetime.end.p0(i64 8, ptr %9) #9
  ret i64 %25
}

; Function Attrs: nounwind uwtable
define dso_local i64 @block_source_size(ptr noundef %0) #0 {
  %2 = alloca ptr, align 8
  store ptr %0, ptr %2, align 8, !tbaa !4
  %3 = load ptr, ptr %2, align 8, !tbaa !4
  %4 = getelementptr inbounds nuw %struct.reftable_block_source, ptr %3, i32 0, i32 0
  %5 = load ptr, ptr %4, align 8, !tbaa !9
  %6 = getelementptr inbounds nuw %struct.reftable_block_source_vtable, ptr %5, i32 0, i32 0
  %7 = load ptr, ptr %6, align 8, !tbaa !12
  %8 = load ptr, ptr %2, align 8, !tbaa !4
  %9 = getelementptr inbounds nuw %struct.reftable_block_source, ptr %8, i32 0, i32 1
  %10 = load ptr, ptr %9, align 8, !tbaa !14
  %11 = call i64 %7(ptr noundef %10)
  ret i64 %11
}

; Function Attrs: nounwind uwtable
define dso_local i32 @reftable_reader_new(ptr noundef %0, ptr noundef %1, ptr noundef %2) #0 {
  %4 = alloca ptr, align 8
  %5 = alloca ptr, align 8
  %6 = alloca ptr, align 8
  %7 = alloca %struct.reftable_block, align 8
  %8 = alloca %struct.reftable_block, align 8
  %9 = alloca ptr, align 8
  %10 = alloca i64, align 8
  %11 = alloca i32, align 4
  %12 = alloca i64, align 8
  %13 = alloca i32, align 4
  store ptr %0, ptr %4, align 8, !tbaa !61
  store ptr %1, ptr %5, align 8, !tbaa !4
  store ptr %2, ptr %6, align 8, !tbaa !41
  call void @llvm.lifetime.start.p0(i64 32, ptr %7) #9
  call void @llvm.memset.p0.i64(ptr align 8 %7, i8 0, i64 32, i1 false)
  call void @llvm.lifetime.start.p0(i64 32, ptr %8) #9
  call void @llvm.memset.p0.i64(ptr align 8 %8, i8 0, i64 32, i1 false)
  call void @llvm.lifetime.start.p0(i64 8, ptr %9) #9
  call void @llvm.lifetime.start.p0(i64 8, ptr %10) #9
  %14 = load ptr, ptr %5, align 8, !tbaa !4
  %15 = call i64 @block_source_size(ptr noundef %14)
  store i64 %15, ptr %10, align 8, !tbaa !17
  call void @llvm.lifetime.start.p0(i64 4, ptr %11) #9
  call void @llvm.lifetime.start.p0(i64 8, ptr %12) #9
  call void @llvm.lifetime.start.p0(i64 4, ptr %13) #9
  %16 = call ptr @reftable_calloc(i64 noundef 1, i64 noundef 144)
  store ptr %16, ptr %9, align 8, !tbaa !26
  %17 = load ptr, ptr %9, align 8, !tbaa !26
  %18 = icmp ne ptr %17, null
  br i1 %18, label %20, label %19

19:                                               ; preds = %3
  store i32 -13, ptr %13, align 4, !tbaa !19
  br label %124

20:                                               ; preds = %3
  %21 = call i64 @header_size(i32 noundef 2)
  %22 = add i64 %21, 1
  %23 = trunc i64 %22 to i32
  store i32 %23, ptr %11, align 4, !tbaa !19
  %24 = load i32, ptr %11, align 4, !tbaa !19
  %25 = zext i32 %24 to i64
  %26 = load i64, ptr %10, align 8, !tbaa !17
  %27 = icmp ugt i64 %25, %26
  br i1 %27, label %28, label %29

28:                                               ; preds = %20
  store i32 -3, ptr %13, align 4, !tbaa !19
  br label %124

29:                                               ; preds = %20
  %30 = load ptr, ptr %5, align 8, !tbaa !4
  %31 = load i32, ptr %11, align 4, !tbaa !19
  %32 = call i64 @block_source_read_block(ptr noundef %30, ptr noundef %8, i64 noundef 0, i32 noundef %31)
  store i64 %32, ptr %12, align 8, !tbaa !17
  %33 = load i64, ptr %12, align 8, !tbaa !17
  %34 = icmp slt i64 %33, 0
  br i1 %34, label %40, label %35

35:                                               ; preds = %29
  %36 = load i64, ptr %12, align 8, !tbaa !17
  %37 = load i32, ptr %11, align 4, !tbaa !19
  %38 = zext i32 %37 to i64
  %39 = icmp ne i64 %36, %38
  br i1 %39, label %40, label %41

40:                                               ; preds = %35, %29
  store i32 -2, ptr %13, align 4, !tbaa !19
  br label %124

41:                                               ; preds = %35
  %42 = getelementptr inbounds nuw %struct.reftable_block, ptr %8, i32 0, i32 0
  %43 = load ptr, ptr %42, align 8, !tbaa !39
  %44 = call i32 @memcmp(ptr noundef %43, ptr noundef @.str, i64 noundef 4) #12
  %45 = icmp ne i32 %44, 0
  br i1 %45, label %46, label %47

46:                                               ; preds = %41
  store i32 -3, ptr %13, align 4, !tbaa !19
  br label %124

47:                                               ; preds = %41
  %48 = getelementptr inbounds nuw %struct.reftable_block, ptr %8, i32 0, i32 0
  %49 = load ptr, ptr %48, align 8, !tbaa !39
  %50 = getelementptr inbounds i8, ptr %49, i64 4
  %51 = load i8, ptr %50, align 1, !tbaa !35
  %52 = zext i8 %51 to i32
  %53 = load ptr, ptr %9, align 8, !tbaa !26
  %54 = getelementptr inbounds nuw %struct.reftable_reader, ptr %53, i32 0, i32 8
  store i32 %52, ptr %54, align 4, !tbaa !37
  %55 = load ptr, ptr %9, align 8, !tbaa !26
  %56 = getelementptr inbounds nuw %struct.reftable_reader, ptr %55, i32 0, i32 8
  %57 = load i32, ptr %56, align 4, !tbaa !37
  %58 = icmp ne i32 %57, 1
  br i1 %58, label %59, label %65

59:                                               ; preds = %47
  %60 = load ptr, ptr %9, align 8, !tbaa !26
  %61 = getelementptr inbounds nuw %struct.reftable_reader, ptr %60, i32 0, i32 8
  %62 = load i32, ptr %61, align 4, !tbaa !37
  %63 = icmp ne i32 %62, 2
  br i1 %63, label %64, label %65

64:                                               ; preds = %59
  store i32 -3, ptr %13, align 4, !tbaa !19
  br label %124

65:                                               ; preds = %59, %47
  %66 = load i64, ptr %10, align 8, !tbaa !17
  %67 = load ptr, ptr %9, align 8, !tbaa !26
  %68 = getelementptr inbounds nuw %struct.reftable_reader, ptr %67, i32 0, i32 8
  %69 = load i32, ptr %68, align 4, !tbaa !37
  %70 = call i64 @footer_size(i32 noundef %69)
  %71 = sub i64 %66, %70
  %72 = load ptr, ptr %9, align 8, !tbaa !26
  %73 = getelementptr inbounds nuw %struct.reftable_reader, ptr %72, i32 0, i32 2
  store i64 %71, ptr %73, align 8, !tbaa !38
  %74 = load ptr, ptr %9, align 8, !tbaa !26
  %75 = getelementptr inbounds nuw %struct.reftable_reader, ptr %74, i32 0, i32 1
  %76 = load ptr, ptr %5, align 8, !tbaa !4
  call void @llvm.memcpy.p0.p0.i64(ptr align 8 %75, ptr align 8 %76, i64 16, i1 false), !tbaa.struct !22
  %77 = load ptr, ptr %6, align 8, !tbaa !41
  %78 = call ptr @reftable_strdup(ptr noundef %77)
  %79 = load ptr, ptr %9, align 8, !tbaa !26
  %80 = getelementptr inbounds nuw %struct.reftable_reader, ptr %79, i32 0, i32 0
  store ptr %78, ptr %80, align 8, !tbaa !32
  %81 = load ptr, ptr %9, align 8, !tbaa !26
  %82 = getelementptr inbounds nuw %struct.reftable_reader, ptr %81, i32 0, i32 0
  %83 = load ptr, ptr %82, align 8, !tbaa !32
  %84 = icmp ne ptr %83, null
  br i1 %84, label %86, label %85

85:                                               ; preds = %65
  store i32 -13, ptr %13, align 4, !tbaa !19
  br label %124

86:                                               ; preds = %65
  %87 = load ptr, ptr %9, align 8, !tbaa !26
  %88 = getelementptr inbounds nuw %struct.reftable_reader, ptr %87, i32 0, i32 3
  store i32 0, ptr %88, align 8, !tbaa !28
  %89 = load ptr, ptr %9, align 8, !tbaa !26
  %90 = getelementptr inbounds nuw %struct.reftable_reader, ptr %89, i32 0, i32 12
  store i64 1, ptr %90, align 8, !tbaa !63
  %91 = load ptr, ptr %5, align 8, !tbaa !4
  %92 = load ptr, ptr %9, align 8, !tbaa !26
  %93 = getelementptr inbounds nuw %struct.reftable_reader, ptr %92, i32 0, i32 2
  %94 = load i64, ptr %93, align 8, !tbaa !38
  %95 = load ptr, ptr %9, align 8, !tbaa !26
  %96 = getelementptr inbounds nuw %struct.reftable_reader, ptr %95, i32 0, i32 8
  %97 = load i32, ptr %96, align 4, !tbaa !37
  %98 = call i64 @footer_size(i32 noundef %97)
  %99 = trunc i64 %98 to i32
  %100 = call i64 @block_source_read_block(ptr noundef %91, ptr noundef %7, i64 noundef %94, i32 noundef %99)
  store i64 %100, ptr %12, align 8, !tbaa !17
  %101 = load i64, ptr %12, align 8, !tbaa !17
  %102 = icmp slt i64 %101, 0
  br i1 %102, label %110, label %103

103:                                              ; preds = %86
  %104 = load i64, ptr %12, align 8, !tbaa !17
  %105 = load ptr, ptr %9, align 8, !tbaa !26
  %106 = getelementptr inbounds nuw %struct.reftable_reader, ptr %105, i32 0, i32 8
  %107 = load i32, ptr %106, align 4, !tbaa !37
  %108 = call i64 @footer_size(i32 noundef %107)
  %109 = icmp ne i64 %104, %108
  br i1 %109, label %110, label %111

110:                                              ; preds = %103, %86
  store i32 -2, ptr %13, align 4, !tbaa !19
  br label %124

111:                                              ; preds = %103
  %112 = load ptr, ptr %9, align 8, !tbaa !26
  %113 = getelementptr inbounds nuw %struct.reftable_block, ptr %7, i32 0, i32 0
  %114 = load ptr, ptr %113, align 8, !tbaa !39
  %115 = getelementptr inbounds nuw %struct.reftable_block, ptr %8, i32 0, i32 0
  %116 = load ptr, ptr %115, align 8, !tbaa !39
  %117 = call i32 @parse_footer(ptr noundef %112, ptr noundef %114, ptr noundef %116)
  store i32 %117, ptr %13, align 4, !tbaa !19
  %118 = load i32, ptr %13, align 4, !tbaa !19
  %119 = icmp ne i32 %118, 0
  br i1 %119, label %120, label %121

120:                                              ; preds = %111
  br label %124

121:                                              ; preds = %111
  %122 = load ptr, ptr %9, align 8, !tbaa !26
  %123 = load ptr, ptr %4, align 8, !tbaa !61
  store ptr %122, ptr %123, align 8, !tbaa !26
  br label %124

124:                                              ; preds = %121, %120, %110, %85, %64, %46, %40, %28, %19
  call void @reftable_block_done(ptr noundef %7)
  call void @reftable_block_done(ptr noundef %8)
  %125 = load i32, ptr %13, align 4, !tbaa !19
  %126 = icmp ne i32 %125, 0
  br i1 %126, label %127, label %130

127:                                              ; preds = %124
  %128 = load ptr, ptr %9, align 8, !tbaa !26
  call void @reftable_free(ptr noundef %128)
  %129 = load ptr, ptr %5, align 8, !tbaa !4
  call void @block_source_close(ptr noundef %129)
  br label %130

130:                                              ; preds = %127, %124
  %131 = load i32, ptr %13, align 4, !tbaa !19
  call void @llvm.lifetime.end.p0(i64 4, ptr %13) #9
  call void @llvm.lifetime.end.p0(i64 8, ptr %12) #9
  call void @llvm.lifetime.end.p0(i64 4, ptr %11) #9
  call void @llvm.lifetime.end.p0(i64 8, ptr %10) #9
  call void @llvm.lifetime.end.p0(i64 8, ptr %9) #9
  call void @llvm.lifetime.end.p0(i64 32, ptr %8) #9
  call void @llvm.lifetime.end.p0(i64 32, ptr %7) #9
  ret i32 %131
}