; Function Attrs: nounwind uwtable
define dso_local range(i32 -13, 1) i32 @reftable_reader_new(ptr noundef writeonly captures(none) %0, ptr noundef captures(none) %1, ptr noundef %2) local_unnamed_addr #0 {
  %4 = alloca %struct.reftable_block, align 8
  %5 = alloca %struct.reftable_block, align 8
  call void @llvm.lifetime.start.p0(i64 32, ptr nonnull %4) #12
  call void @llvm.memset.p0.i64(ptr noundef nonnull align 8 dereferenceable(32) %4, i8 0, i64 32, i1 false)
  call void @llvm.lifetime.start.p0(i64 32, ptr nonnull %5) #12
  call void @llvm.memset.p0.i64(ptr noundef nonnull align 8 dereferenceable(32) %5, i8 0, i64 32, i1 false)
  %6 = load ptr, ptr %1, align 8, !tbaa !4
  %7 = load ptr, ptr %6, align 8, !tbaa !10
  %8 = getelementptr inbounds nuw i8, ptr %1, i64 8
  %9 = load ptr, ptr %8, align 8, !tbaa !12
  %10 = tail call i64 %7(ptr noundef %9) #12
  %11 = tail call ptr @reftable_calloc(i64 noundef 1, i64 noundef 144) #12
  %.not = icmp eq ptr %11, null
  br i1 %.not, label %60, label %12

12:                                               ; preds = %3
  %13 = tail call i64 @header_size(i32 noundef 2) #12
  %14 = trunc i64 %13 to i32
  %15 = add i32 %14, 1
  %16 = zext i32 %15 to i64
  %17 = icmp ult i64 %10, %16
  br i1 %17, label %60, label %18

18:                                               ; preds = %12
  %19 = load ptr, ptr %1, align 8, !tbaa !4
  %20 = getelementptr inbounds nuw i8, ptr %19, i64 8
  %21 = load ptr, ptr %20, align 8, !tbaa !13
  %22 = load ptr, ptr %8, align 8, !tbaa !12
  %23 = call i64 %21(ptr noundef %22, ptr noundef nonnull %5, i64 noundef 0, i32 noundef %15) #12
  %24 = getelementptr inbounds nuw i8, ptr %5, i64 16
  call void @llvm.memcpy.p0.p0.i64(ptr noundef nonnull align 8 dereferenceable(16) %24, ptr noundef nonnull readonly align 8 dereferenceable(16) %1, i64 16, i1 false), !tbaa.struct !14
  %.not42 = icmp eq i64 %23, %16
  br i1 %.not42, label %25, label %60

25:                                               ; preds = %18
  %26 = load ptr, ptr %5, align 8, !tbaa !28
  %bcmp = call i32 @bcmp(ptr noundef nonnull dereferenceable(4) %26, ptr noundef nonnull dereferenceable(4) @.str, i64 4)
  %.not43 = icmp eq i32 %bcmp, 0
  br i1 %.not43, label %27, label %60

27:                                               ; preds = %25
  %28 = getelementptr inbounds nuw i8, ptr %26, i64 4
  %29 = load i8, ptr %28, align 1, !tbaa !30
  %30 = zext i8 %29 to i32
  %31 = getelementptr inbounds nuw i8, ptr %11, i64 60
  store i32 %30, ptr %31, align 4, !tbaa !26
  %.off = add i8 %29, -1
  %switch = icmp ult i8 %.off, 2
  br i1 %switch, label %32, label %60

32:                                               ; preds = %27
  %33 = call i64 @footer_size(i32 noundef %30) #12
  %34 = sub i64 %10, %33
  %35 = getelementptr inbounds nuw i8, ptr %11, i64 24
  store i64 %34, ptr %35, align 8, !tbaa !27
  %36 = getelementptr inbounds nuw i8, ptr %11, i64 8
  call void @llvm.memcpy.p0.p0.i64(ptr noundef nonnull align 8 dereferenceable(16) %36, ptr noundef nonnull align 8 dereferenceable(16) %1, i64 16, i1 false), !tbaa.struct !14
  %37 = call ptr @reftable_strdup(ptr noundef %2) #12
  store ptr %37, ptr %11, align 8, !tbaa !24
  %.not46 = icmp eq ptr %37, null
  br i1 %.not46, label %60, label %38

38:                                               ; preds = %32
  %39 = getelementptr inbounds nuw i8, ptr %11, i64 32
  store i32 0, ptr %39, align 8, !tbaa !18
  %40 = getelementptr inbounds nuw i8, ptr %11, i64 136
  store i64 1, ptr %40, align 8, !tbaa !32
  %41 = load i64, ptr %35, align 8, !tbaa !27
  %42 = load i32, ptr %31, align 4, !tbaa !26
  %43 = call i64 @footer_size(i32 noundef %42) #12
  %44 = trunc i64 %43 to i32
  %45 = load ptr, ptr %1, align 8, !tbaa !4
  %46 = getelementptr inbounds nuw i8, ptr %45, i64 8
  %47 = load ptr, ptr %46, align 8, !tbaa !13
  %48 = load ptr, ptr %8, align 8, !tbaa !12
  %49 = call i64 %47(ptr noundef %48, ptr noundef nonnull %4, i64 noundef %41, i32 noundef %44) #12
  %50 = getelementptr inbounds nuw i8, ptr %4, i64 16
  call void @llvm.memcpy.p0.p0.i64(ptr noundef nonnull align 8 dereferenceable(16) %50, ptr noundef nonnull readonly align 8 dereferenceable(16) %1, i64 16, i1 false), !tbaa.struct !14
  %51 = icmp slt i64 %49, 0
  br i1 %51, label %60, label %52

52:                                               ; preds = %38
  %53 = load i32, ptr %31, align 4, !tbaa !26
  %54 = call i64 @footer_size(i32 noundef %53) #12
  %.not47 = icmp eq i64 %49, %54
  br i1 %.not47, label %55, label %60

55:                                               ; preds = %52
  %56 = load ptr, ptr %4, align 8, !tbaa !28
  %57 = load ptr, ptr %5, align 8, !tbaa !28
  %58 = call fastcc i32 @parse_footer(ptr noundef %11, ptr noundef %56, ptr noundef %57)
  %.not48 = icmp eq i32 %58, 0
  br i1 %.not48, label %59, label %60

59:                                               ; preds = %55
  store ptr %11, ptr %0, align 8, !tbaa !45
  br label %60

60:                                               ; preds = %27, %38, %52, %32, %25, %18, %12, %3, %55, %59
  %.0 = phi i32 [ %58, %55 ], [ 0, %59 ], [ -13, %3 ], [ -3, %12 ], [ -2, %18 ], [ -3, %25 ], [ -3, %27 ], [ -13, %32 ], [ -2, %52 ], [ -2, %38 ]
  call void @reftable_block_done(ptr noundef nonnull %4) #12
  call void @reftable_block_done(ptr noundef nonnull %5) #12
  %.not49 = icmp eq i32 %.0, 0
  br i1 %.not49, label %block_source_close.exit, label %61

61:                                               ; preds = %60
  call void @reftable_free(ptr noundef %11) #12
  %62 = load ptr, ptr %1, align 8, !tbaa !4
  %.not.i = icmp eq ptr %62, null
  br i1 %.not.i, label %block_source_close.exit, label %63

63:                                               ; preds = %61
  %64 = getelementptr inbounds nuw i8, ptr %62, i64 24
  %65 = load ptr, ptr %64, align 8, !tbaa !17
  %66 = load ptr, ptr %8, align 8, !tbaa !12
  call void %65(ptr noundef %66) #12
  store ptr null, ptr %1, align 8, !tbaa !4
  br label %block_source_close.exit

block_source_close.exit:                          ; preds = %63, %61, %60
  call void @llvm.lifetime.end.p0(i64 32, ptr nonnull %5) #12
  call void @llvm.lifetime.end.p0(i64 32, ptr nonnull %4) #12
  ret i32 %.0
}